; Function Attrs: nounwind uwtable
define i32 @ossl_pw_pem_password(ptr noundef %0, i32 noundef %1, i32 noundef %2, ptr noundef captures(none) %3) local_unnamed_addr #0 {
  %5 = alloca i64, align 8
  %6 = alloca [2 x %struct.ossl_param_st], align 16
  call void @llvm.lifetime.start.p0(i64 8, ptr nonnull %5) #7
  store i64 0, ptr %5, align 8, !tbaa !15
  call void @llvm.lifetime.start.p0(i64 80, ptr nonnull %6) #7
  call void @llvm.memcpy.p0.p0.i64(ptr noundef nonnull align 16 dereferenceable(80) %6, ptr noundef nonnull align 16 dereferenceable(80) @__const.ossl_pw_get_password.params, i64 80, i1 false)
  %7 = getelementptr inbounds nuw i8, ptr %6, i64 16
  store ptr @.str.4, ptr %7, align 16, !tbaa !18
  %8 = sext i32 %1 to i64
  %9 = call i32 @ossl_pw_get_passphrase(ptr noundef %0, i64 noundef %8, ptr noundef nonnull %5, ptr noundef nonnull %6, i32 noundef %2, ptr noundef %3)
  %.not.i = icmp eq i32 %9, 0
  %10 = load i64, ptr %5, align 8
  %11 = trunc i64 %10 to i32
  %.0.i = select i1 %.not.i, i32 -1, i32 %11
  call void @llvm.lifetime.end.p0(i64 80, ptr nonnull %6) #7
  call void @llvm.lifetime.end.p0(i64 8, ptr nonnull %5) #7
  ret i32 %.0.i
}